; Function Attrs: mustprogress nounwind uwtable
define void @_ZN8proxygen7Service19clearServiceWorkersEv(ptr noundef nonnull align 8 dereferenceable(56) %this) local_unnamed_addr #1 align 2 personality ptr @__gxx_personality_v0 {
entry:
  %workers_ = getelementptr inbounds i8, ptr %this, i64 8
  %0 = load ptr, ptr %workers_, align 8
  %cmp.not4.i.i = icmp eq ptr %0, %workers_
  br i1 %cmp.not4.i.i, label %_ZNSt7__cxx114listISt10unique_ptrIN8proxygen13ServiceWorkerESt14default_deleteIS3_EESaIS6_EE5clearEv.exit, label %while.body.i.i

while.body.i.i:                                   ; preds = %entry, %_ZNSt16allocator_traitsISaISt10_List_nodeISt10unique_ptrIN8proxygen13ServiceWorkerESt14default_deleteIS3_EEEEE7destroyIS6_EEvRS8_PT_.exit.i.i
  %__cur.05.i.i = phi ptr [ %1, %_ZNSt16allocator_traitsISaISt10_List_nodeISt10unique_ptrIN8proxygen13ServiceWorkerESt14default_deleteIS3_EEEEE7destroyIS6_EEvRS8_PT_.exit.i.i ], [ %0, %entry ]
  %1 = load ptr, ptr %__cur.05.i.i, align 8
  %_M_storage.i.i.i = getelementptr inbounds i8, ptr %__cur.05.i.i, i64 16
  %2 = load ptr, ptr %_M_storage.i.i.i, align 8
  %cmp.not.i.i.i.i.i = icmp eq ptr %2, null
  br i1 %cmp.not.i.i.i.i.i, label %_ZNSt16allocator_traitsISaISt10_List_nodeISt10unique_ptrIN8proxygen13ServiceWorkerESt14default_deleteIS3_EEEEE7destroyIS6_EEvRS8_PT_.exit.i.i, label %_ZNKSt14default_deleteIN8proxygen13ServiceWorkerEEclEPS1_.exit.i.i.i.i.i

_ZNKSt14default_deleteIN8proxygen13ServiceWorkerEEclEPS1_.exit.i.i.i.i.i: ; preds = %while.body.i.i
  %vtable.i.i.i.i.i.i = load ptr, ptr %2, align 8
  %vfn.i.i.i.i.i.i = getelementptr inbounds i8, ptr %vtable.i.i.i.i.i.i, i64 8
  %3 = load ptr, ptr %vfn.i.i.i.i.i.i, align 8
  tail call void %3(ptr noundef nonnull align 8 dereferenceable(168) %2) #22
  br label %_ZNSt16allocator_traitsISaISt10_List_nodeISt10unique_ptrIN8proxygen13ServiceWorkerESt14default_deleteIS3_EEEEE7destroyIS6_EEvRS8_PT_.exit.i.i

_ZNSt16allocator_traitsISaISt10_List_nodeISt10unique_ptrIN8proxygen13ServiceWorkerESt14default_deleteIS3_EEEEE7destroyIS6_EEvRS8_PT_.exit.i.i: ; preds = %_ZNKSt14default_deleteIN8proxygen13ServiceWorkerEEclEPS1_.exit.i.i.i.i.i, %while.body.i.i
  tail call void @_ZdlPv(ptr noundef nonnull %__cur.05.i.i) #21
  %cmp.not.i.i = icmp eq ptr %1, %workers_
  br i1 %cmp.not.i.i, label %_ZNSt7__cxx114listISt10unique_ptrIN8proxygen13ServiceWorkerESt14default_deleteIS3_EESaIS6_EE5clearEv.exit, label %while.body.i.i, !llvm.loop !4

_ZNSt7__cxx114listISt10unique_ptrIN8proxygen13ServiceWorkerESt14default_deleteIS3_EESaIS6_EE5clearEv.exit: ; preds = %_ZNSt16allocator_traitsISaISt10_List_nodeISt10unique_ptrIN8proxygen13ServiceWorkerESt14default_deleteIS3_EEEEE7destroyIS6_EEvRS8_PT_.exit.i.i, %entry
  %_M_prev.i.i.i = getelementptr inbounds i8, ptr %this, i64 16
  store ptr %workers_, ptr %_M_prev.i.i.i, align 8
  store ptr %workers_, ptr %workers_, align 8
  %_M_size.i.i.i = getelementptr inbounds i8, ptr %this, i64 24
  store i64 0, ptr %_M_size.i.i.i, align 8
  ret void
}